; Function Attrs: nounwind uwtable
define hidden void @b2PrepareOverflowJoints(ptr noundef %0) local_unnamed_addr #0 {
  %2 = getelementptr inbounds nuw i8, ptr %0, i64 72
  %3 = load ptr, ptr %2, align 8, !tbaa !222
  %4 = getelementptr inbounds nuw i8, ptr %3, i64 648
  %5 = load ptr, ptr %4, align 8, !tbaa !232
  %6 = getelementptr inbounds nuw i8, ptr %3, i64 656
  %7 = load i32, ptr %6, align 8, !tbaa !234
  %8 = icmp sgt i32 %7, 0
  br i1 %8, label %.lr.ph.preheader, label %._crit_edge

.lr.ph.preheader:                                 ; preds = %1
  %wide.trip.count = zext nneg i32 %7 to i64
  br label %.lr.ph

._crit_edge:                                      ; preds = %.lr.ph, %1
  ret void

.lr.ph:                                           ; preds = %.lr.ph.preheader, %.lr.ph
  %indvars.iv = phi i64 [ 0, %.lr.ph.preheader ], [ %indvars.iv.next, %.lr.ph ]
  %9 = getelementptr inbounds nuw %struct.b2JointSim, ptr %5, i64 %indvars.iv
  tail call void @b2PrepareJoint(ptr noundef %9, ptr noundef %0)
  %indvars.iv.next = add nuw nsw i64 %indvars.iv, 1
  %exitcond.not = icmp eq i64 %indvars.iv.next, %wide.trip.count
  br i1 %exitcond.not, label %._crit_edge, label %.lr.ph, !llvm.loop !235
}